; Function Attrs: mustprogress nofree nounwind sspstrong willreturn memory(argmem: write, inaccessiblemem: readwrite) uwtable
define hidden noundef zeroext i1 @pm_buffer_init_capacity(ptr noundef writeonly captures(none) initializes((0, 24)) %0, i64 noundef %1) local_unnamed_addr #1 {
  store i64 0, ptr %0, align 8, !tbaa !7
  %3 = getelementptr inbounds nuw i8, ptr %0, i64 8
  store i64 %1, ptr %3, align 8, !tbaa !14
  %4 = tail call noalias ptr @malloc(i64 noundef %1) #17
  %5 = getelementptr inbounds nuw i8, ptr %0, i64 16
  store ptr %4, ptr %5, align 8, !tbaa !15
  %6 = icmp ne ptr %4, null
  ret i1 %6
}